; ModuleID = 'bench/linux/original/utlock.ll'
source_filename = "bench/linux/original/utlock.ll"
target datalayout = "e-m:e-p270:32:32-p271:32:32-p272:64:64-i64:64-i128:128-f80:128-n8:16:32:64-S128"
target triple = "x86_64-unknown-linux-gnu"

; Function Attrs: fn_ret_thunk_extern nounwind null_pointer_is_valid
define dso_local i32 @acpi_ut_create_rw_lock(ptr noundef %0) local_unnamed_addr #0 align 16 {
  %2 = getelementptr inbounds i8, ptr %0, i64 16
  store i32 0, ptr %2, align 8
  %3 = getelementptr inbounds i8, ptr %0, i64 8
  %4 = tail call i32 @acpi_os_create_semaphore(i32 noundef 1, i32 noundef 1, ptr noundef %3) #3
  %5 = icmp eq i32 %4, 0
  br i1 %5, label %6, label %8

6:                                                ; preds = %1
  %7 = tail call i32 @acpi_os_create_semaphore(i32 noundef 1, i32 noundef 1, ptr noundef %0) #3
  br label %8

8:                                                ; preds = %6, %1
  %9 = phi i32 [ %7, %6 ], [ %4, %1 ]
  ret i32 %9
}

; Function Attrs: null_pointer_is_valid
declare dso_local i32 @acpi_os_create_semaphore(i32 noundef, i32 noundef, ptr noundef) local_unnamed_addr #1

; Function Attrs: fn_ret_thunk_extern nounwind null_pointer_is_valid
define dso_local void @acpi_ut_delete_rw_lock(ptr nocapture noundef %0) local_unnamed_addr #0 align 16 {
  %2 = getelementptr inbounds i8, ptr %0, i64 8
  %3 = load ptr, ptr %2, align 8
  %4 = tail call i32 @acpi_os_delete_semaphore(ptr noundef %3) #3
  %5 = load ptr, ptr %0, align 8
  %6 = tail call i32 @acpi_os_delete_semaphore(ptr noundef %5) #3
  tail call void @llvm.memset.p0.i64(ptr noundef align 8 dereferenceable(20) %0, i8 0, i64 20, i1 false)
  ret void
}

; Function Attrs: null_pointer_is_valid
declare dso_local i32 @acpi_os_delete_semaphore(ptr noundef) local_unnamed_addr #1

; Function Attrs: fn_ret_thunk_extern nounwind null_pointer_is_valid
define dso_local i32 @acpi_ut_acquire_read_lock(ptr nocapture noundef %0) local_unnamed_addr #0 align 16 {
  %2 = getelementptr inbounds i8, ptr %0, i64 8
  %3 = load ptr, ptr %2, align 8
  %4 = tail call i32 @acpi_os_wait_semaphore(ptr noundef %3, i32 noundef 1, i16 noundef zeroext -1) #3
  %5 = icmp eq i32 %4, 0
  br i1 %5, label %6, label %18

6:                                                ; preds = %1
  %7 = getelementptr inbounds i8, ptr %0, i64 16
  %8 = load i32, ptr %7, align 8
  %9 = add i32 %8, 1
  store i32 %9, ptr %7, align 8
  %10 = icmp eq i32 %8, 0
  br i1 %10, label %11, label %14

11:                                               ; preds = %6
  %12 = load ptr, ptr %0, align 8
  %13 = tail call i32 @acpi_os_wait_semaphore(ptr noundef %12, i32 noundef 1, i16 noundef zeroext -1) #3
  br label %14

14:                                               ; preds = %11, %6
  %15 = phi i32 [ %13, %11 ], [ 0, %6 ]
  %16 = load ptr, ptr %2, align 8
  %17 = tail call i32 @acpi_os_signal_semaphore(ptr noundef %16, i32 noundef 1) #3
  br label %18

18:                                               ; preds = %14, %1
  %19 = phi i32 [ %15, %14 ], [ %4, %1 ]
  ret i32 %19
}

; Function Attrs: null_pointer_is_valid
declare dso_local i32 @acpi_os_wait_semaphore(ptr noundef, i32 noundef, i16 noundef zeroext) local_unnamed_addr #1

; Function Attrs: null_pointer_is_valid
declare dso_local i32 @acpi_os_signal_semaphore(ptr noundef, i32 noundef) local_unnamed_addr #1

; Function Attrs: fn_ret_thunk_extern nounwind null_pointer_is_valid
define dso_local i32 @acpi_ut_release_read_lock(ptr nocapture noundef %0) local_unnamed_addr #0 align 16 {
  %2 = getelementptr inbounds i8, ptr %0, i64 8
  %3 = load ptr, ptr %2, align 8
  %4 = tail call i32 @acpi_os_wait_semaphore(ptr noundef %3, i32 noundef 1, i16 noundef zeroext -1) #3
  %5 = icmp eq i32 %4, 0
  br i1 %5, label %6, label %17

6:                                                ; preds = %1
  %7 = getelementptr inbounds i8, ptr %0, i64 16
  %8 = load i32, ptr %7, align 8
  %9 = add i32 %8, -1
  store i32 %9, ptr %7, align 8
  %10 = icmp eq i32 %9, 0
  br i1 %10, label %11, label %14

11:                                               ; preds = %6
  %12 = load ptr, ptr %0, align 8
  %13 = tail call i32 @acpi_os_signal_semaphore(ptr noundef %12, i32 noundef 1) #3
  br label %14

14:                                               ; preds = %11, %6
  %15 = load ptr, ptr %2, align 8
  %16 = tail call i32 @acpi_os_signal_semaphore(ptr noundef %15, i32 noundef 1) #3
  br label %17

17:                                               ; preds = %14, %1
  ret i32 %4
}

; Function Attrs: fn_ret_thunk_extern nounwind null_pointer_is_valid
define dso_local i32 @acpi_ut_acquire_write_lock(ptr nocapture noundef readonly %0) local_unnamed_addr #0 align 16 {
  %2 = load ptr, ptr %0, align 8
  %3 = tail call i32 @acpi_os_wait_semaphore(ptr noundef %2, i32 noundef 1, i16 noundef zeroext -1) #3
  ret i32 %3
}

; Function Attrs: fn_ret_thunk_extern nounwind null_pointer_is_valid
define dso_local void @acpi_ut_release_write_lock(ptr nocapture noundef readonly %0) local_unnamed_addr #0 align 16 {
  %2 = load ptr, ptr %0, align 8
  %3 = tail call i32 @acpi_os_signal_semaphore(ptr noundef %2, i32 noundef 1) #3
  ret void
}

; Function Attrs: mustprogress nocallback nofree nounwind willreturn memory(argmem: write)
declare void @llvm.memset.p0.i64(ptr nocapture writeonly, i8, i64, i1 immarg) #2


!llvm.module.flags = !{!0, !1, !2, !3, !4}

!0 = !{i32 1, !"wchar_size", i32 2}
!1 = !{i32 8, !"cf-protection-branch", i32 1}
!2 = !{i32 4, !"function_return_thunk_extern", i32 1}
!3 = !{i32 4, !"indirect_branch_cs_prefix", i32 1}
!4 = !{i32 4, !"SkipRaxSetup", i32 1}
